; Function Attrs: mustprogress nofree nounwind willreturn memory(read, inaccessiblemem: none) uwtable
define hidden noundef i64 @_ZNK6google8protobuf20stringpiece_internal11StringPiece13find_first_ofES2_m(ptr noundef nonnull readonly align 8 captures(none) dereferenceable(16) %0, ptr readonly captures(none) %1, i64 %2, i64 noundef %3) local_unnamed_addr #7 align 2 {
  %5 = alloca [256 x i8], align 16
  %6 = getelementptr inbounds nuw i8, ptr %0, i64 8
  %7 = load i64, ptr %6, align 8, !tbaa !10
  %8 = icmp eq i64 %7, 0
  %9 = icmp eq i64 %2, 0
  %or.cond = select i1 %8, i1 true, i1 %9
  br i1 %or.cond, label %_ZNK6google8protobuf20stringpiece_internal11StringPiece13find_first_ofEcm.exit, label %10

10:                                               ; preds = %4
  %11 = icmp eq i64 %2, 1
  br i1 %11, label %12, label %24

12:                                               ; preds = %10
  %.not.i.i = icmp ult i64 %3, %7
  br i1 %.not.i.i, label %13, label %_ZNK6google8protobuf20stringpiece_internal11StringPiece13find_first_ofEcm.exit

13:                                               ; preds = %12
  %14 = load i8, ptr %1, align 1, !tbaa !16
  %15 = load ptr, ptr %0, align 8, !tbaa !3
  %16 = getelementptr inbounds nuw i8, ptr %15, i64 %3
  %17 = sext i8 %14 to i32
  %18 = sub nuw i64 %7, %3
  %19 = tail call noundef ptr @memchr(ptr noundef %16, i32 noundef %17, i64 noundef %18) #17
  %.not10.i.i = icmp eq ptr %19, null
  %20 = ptrtoint ptr %19 to i64
  %21 = ptrtoint ptr %15 to i64
  %22 = sub i64 %20, %21
  %23 = select i1 %.not10.i.i, i64 -1, i64 %22
  br label %_ZNK6google8protobuf20stringpiece_internal11StringPiece13find_first_ofEcm.exit

24:                                               ; preds = %10
  call void @llvm.lifetime.start.p0(i64 256, ptr nonnull %5) #15
  call void @llvm.memset.p0.i64(ptr noundef nonnull align 16 dereferenceable(256) %5, i8 0, i64 256, i1 false)
  br label %.lr.ph.i

.lr.ph.i:                                         ; preds = %24, %.lr.ph.i
  %.05.i = phi i64 [ %29, %.lr.ph.i ], [ 0, %24 ]
  %25 = getelementptr inbounds nuw i8, ptr %1, i64 %.05.i
  %26 = load i8, ptr %25, align 1, !tbaa !16
  %27 = zext i8 %26 to i64
  %28 = getelementptr inbounds nuw i8, ptr %5, i64 %27
  store i8 1, ptr %28, align 1, !tbaa !19
  %29 = add nuw i64 %.05.i, 1
  %exitcond.not.i = icmp eq i64 %29, %2
  br i1 %exitcond.not.i, label %_ZN6google8protobuf20stringpiece_internalL16BuildLookupTableENS1_11StringPieceEPb.exit.preheader, label %.lr.ph.i, !llvm.loop !21

_ZN6google8protobuf20stringpiece_internalL16BuildLookupTableENS1_11StringPieceEPb.exit.preheader: ; preds = %.lr.ph.i
  %.not12 = icmp ult i64 %3, %7
  br i1 %.not12, label %.lr.ph, label %._crit_edge

.lr.ph:                                           ; preds = %_ZN6google8protobuf20stringpiece_internalL16BuildLookupTableENS1_11StringPieceEPb.exit.preheader
  %30 = load ptr, ptr %0, align 8, !tbaa !3
  br label %31

31:                                               ; preds = %.lr.ph, %_ZN6google8protobuf20stringpiece_internalL16BuildLookupTableENS1_11StringPieceEPb.exit
  %.0813 = phi i64 [ %3, %.lr.ph ], [ %38, %_ZN6google8protobuf20stringpiece_internalL16BuildLookupTableENS1_11StringPieceEPb.exit ]
  %32 = getelementptr inbounds nuw i8, ptr %30, i64 %.0813
  %33 = load i8, ptr %32, align 1, !tbaa !16
  %34 = zext i8 %33 to i64
  %35 = getelementptr inbounds nuw [256 x i8], ptr %5, i64 0, i64 %34
  %36 = load i8, ptr %35, align 1, !tbaa !19, !range !22, !noundef !23
  %37 = trunc nuw i8 %36 to i1
  br i1 %37, label %._crit_edge, label %_ZN6google8protobuf20stringpiece_internalL16BuildLookupTableENS1_11StringPieceEPb.exit

_ZN6google8protobuf20stringpiece_internalL16BuildLookupTableENS1_11StringPieceEPb.exit: ; preds = %31
  %38 = add i64 %.0813, 1
  %exitcond.not = icmp eq i64 %38, %7
  br i1 %exitcond.not, label %._crit_edge, label %31, !llvm.loop !24

._crit_edge:                                      ; preds = %_ZN6google8protobuf20stringpiece_internalL16BuildLookupTableENS1_11StringPieceEPb.exit, %31, %_ZN6google8protobuf20stringpiece_internalL16BuildLookupTableENS1_11StringPieceEPb.exit.preheader
  %spec.select = phi i64 [ -1, %_ZN6google8protobuf20stringpiece_internalL16BuildLookupTableENS1_11StringPieceEPb.exit.preheader ], [ %.0813, %31 ], [ -1, %_ZN6google8protobuf20stringpiece_internalL16BuildLookupTableENS1_11StringPieceEPb.exit ]
  call void @llvm.lifetime.end.p0(i64 256, ptr nonnull %5) #15
  br label %_ZNK6google8protobuf20stringpiece_internal11StringPiece13find_first_ofEcm.exit

_ZNK6google8protobuf20stringpiece_internal11StringPiece13find_first_ofEcm.exit: ; preds = %13, %12, %4, %._crit_edge
  %.09 = phi i64 [ %spec.select, %._crit_edge ], [ -1, %4 ], [ %23, %13 ], [ -1, %12 ]
  ret i64 %.09
}